; Function Attrs: mustprogress null_pointer_is_valid sspstrong uwtable
define void @_ZN23ProtocolPreferencesMenuC2ERK7QStringS2_P7QWidget(ptr noundef align 8 dereferenceable_or_null(80) %0, ptr noundef align 8 dereferenceable(24) %1, ptr noundef readonly align 8 captures(none) dereferenceable(24) %2, ptr noundef %3) unnamed_addr #0 align 2 personality ptr @__gxx_personality_v0 {
  %5 = alloca %class.QString, align 8
  tail call void @_ZN5QMenuC2ERK7QStringP7QWidget(ptr noundef align 8 dereferenceable_or_null(40) %0, ptr noundef align 8 dereferenceable(24) %1, ptr noundef %3)
  store ptr getelementptr inbounds nuw inrange(-16, 424) (i8, ptr @_ZTV23ProtocolPreferencesMenu, i64 16), ptr %0, align 8
  %6 = getelementptr inbounds nuw i8, ptr %0, i64 16
  store ptr getelementptr inbounds nuw inrange(-16, 64) (i8, ptr @_ZTV23ProtocolPreferencesMenu, i64 456), ptr %6, align 8
  %7 = getelementptr inbounds nuw i8, ptr %0, i64 40
  tail call void @llvm.memset.p0.i64(ptr noundef nonnull align 8 dereferenceable(24) dereferenceable_or_null(24) %7, i8 0, i64 24, i1 false)
  %8 = load ptr, ptr %2, align 8
  store ptr %8, ptr %5, align 8
  %9 = getelementptr inbounds nuw i8, ptr %5, i64 8
  %10 = getelementptr inbounds nuw i8, ptr %2, i64 8
  %11 = load ptr, ptr %10, align 8
  store ptr %11, ptr %9, align 8
  %12 = getelementptr inbounds nuw i8, ptr %5, i64 16
  %13 = getelementptr inbounds nuw i8, ptr %2, i64 16
  %14 = load i64, ptr %13, align 8
  store i64 %14, ptr %12, align 8
  %.not.i.i.i = icmp eq ptr %8, null
  br i1 %.not.i.i.i, label %_ZN7QStringC2ERKS_.exit, label %15

15:                                               ; preds = %4
  %16 = atomicrmw add ptr %8, i32 1 seq_cst, align 4
  br label %_ZN7QStringC2ERKS_.exit

_ZN7QStringC2ERKS_.exit:                          ; preds = %4, %15
  invoke void @_ZN23ProtocolPreferencesMenu9setModuleE7QString(ptr noundef align 8 dereferenceable_or_null(80) %0, ptr noundef nonnull %5)
          to label %17 unwind label %22

17:                                               ; preds = %_ZN7QStringC2ERKS_.exit
  %18 = load ptr, ptr %5, align 8
  %.not.i.i.i5 = icmp eq ptr %18, null
  br i1 %.not.i.i.i5, label %_ZN7QStringD2Ev.exit, label %_ZN17QArrayDataPointerIDsE5derefEv.exit.i.i

_ZN17QArrayDataPointerIDsE5derefEv.exit.i.i:      ; preds = %17
  %19 = atomicrmw sub ptr %18, i32 1 seq_cst, align 4
  %.not.i.i = icmp eq i32 %19, 1
  br i1 %.not.i.i, label %20, label %_ZN7QStringD2Ev.exit

20:                                               ; preds = %_ZN17QArrayDataPointerIDsE5derefEv.exit.i.i
  %21 = load ptr, ptr %5, align 8
  call void @_ZN10QArrayData10deallocateEPS_xx(ptr noundef %21, i64 noundef 2, i64 noundef 8) #10
  br label %_ZN7QStringD2Ev.exit

_ZN7QStringD2Ev.exit:                             ; preds = %17, %_ZN17QArrayDataPointerIDsE5derefEv.exit.i.i, %20
  ret void

22:                                               ; preds = %_ZN7QStringC2ERKS_.exit
  %23 = landingpad { ptr, i32 }
          cleanup
  %24 = load ptr, ptr %5, align 8
  %.not.i.i.i6 = icmp eq ptr %24, null
  br i1 %.not.i.i.i6, label %_ZN7QStringD2Ev.exit9, label %_ZN17QArrayDataPointerIDsE5derefEv.exit.i.i7

_ZN17QArrayDataPointerIDsE5derefEv.exit.i.i7:     ; preds = %22
  %25 = atomicrmw sub ptr %24, i32 1 seq_cst, align 4
  %.not.i.i8 = icmp eq i32 %25, 1
  br i1 %.not.i.i8, label %26, label %_ZN7QStringD2Ev.exit9

26:                                               ; preds = %_ZN17QArrayDataPointerIDsE5derefEv.exit.i.i7
  %27 = load ptr, ptr %5, align 8
  call void @_ZN10QArrayData10deallocateEPS_xx(ptr noundef %27, i64 noundef 2, i64 noundef 8) #10
  br label %_ZN7QStringD2Ev.exit9

_ZN7QStringD2Ev.exit9:                            ; preds = %22, %_ZN17QArrayDataPointerIDsE5derefEv.exit.i.i7, %26
  call void @_ZN7QStringD2Ev(ptr noundef nonnull align 8 dereferenceable_or_null(24) %7) #10
  call void @_ZN5QMenuD2Ev(ptr noundef align 8 dereferenceable_or_null(40) %0) #10
  resume { ptr, i32 } %23
}